; Function Attrs: mustprogress uwtable
define hidden void @_ZN2cv10PAMDecoderC2Ev(ptr noundef nonnull align 8 dereferenceable(456) %0) unnamed_addr #3 align 2 personality ptr @__gxx_personality_v0 {
  tail call void @_ZN2cv16BaseImageDecoderC2Ev(ptr noundef nonnull align 8 dereferenceable(368) %0)
  store ptr getelementptr inbounds nuw inrange(-16, 104) (i8, ptr @_ZTVN2cv10PAMDecoderE, i64 16), ptr %0, align 8, !tbaa !3
  %2 = getelementptr inbounds nuw i8, ptr %0, i64 368
  invoke void @_ZN2cv11RBaseStreamC2Ev(ptr noundef nonnull align 8 dereferenceable(57) %2)
          to label %3 unwind label %11

3:                                                ; preds = %1
  store ptr getelementptr inbounds nuw inrange(-16, 64) (i8, ptr @_ZTVN2cv12RLByteStreamE, i64 16), ptr %2, align 8, !tbaa !3
  %4 = getelementptr inbounds nuw i8, ptr %0, i64 444
  store i32 -1, ptr %4, align 4, !tbaa !6
  %5 = getelementptr inbounds nuw i8, ptr %0, i64 184
  store i8 1, ptr %5, align 8, !tbaa !55
  %6 = getelementptr inbounds nuw i8, ptr %0, i64 452
  store i8 0, ptr %6, align 4, !tbaa !56
  %7 = getelementptr inbounds nuw i8, ptr %0, i64 448
  store i32 0, ptr %7, align 8, !tbaa !57
  %8 = getelementptr inbounds nuw i8, ptr %0, i64 432
  store i32 0, ptr %8, align 8, !tbaa !58
  %9 = getelementptr inbounds nuw i8, ptr %0, i64 436
  store i32 0, ptr %9, align 4, !tbaa !59
  %10 = getelementptr inbounds nuw i8, ptr %0, i64 440
  store i32 0, ptr %10, align 8, !tbaa !60
  ret void

11:                                               ; preds = %1
  %12 = landingpad { ptr, i32 }
          cleanup
  tail call void @_ZN2cv16BaseImageDecoderD2Ev(ptr noundef nonnull align 8 dereferenceable(368) %0) #23
  resume { ptr, i32 } %12
}